(lp0
F0.08218390804597671
acnumpy.core.multiarray
scalar
p1
(cnumpy
dtype
p2
(S'f8'
p3
I0
I1
tp4
Rp5
(I3
S'<'
p6
NNNI-1
I-1
I0
tp7
bS'\xc2 \xfa\xc2f\x93\xc9?'
p8
tp9
Rp10
ag1
(g5
S'l\x18\x1c\x17\xff\xae\xc9?'
p11
tp12
Rp13
a.