(lp0
cnumpy.core.multiarray
scalar
p1
(cnumpy
dtype
p2
(S'f8'
p3
I0
I1
tp4
Rp5
(I3
S'<'
p6
NNNI-1
I-1
I0
tp7
bS'\x0c\x1b=\x9d\xe6M\xf3?'
p8
tp9
Rp10
ag1
(g5
S"b`K'\x1b3\xe6?"
p11
tp12
Rp13
ag1
(g5
S'\xb4\x8a\x00\xef\x90\x1d\xe6?'
p14
tp15
Rp16
a.