(lp0
(I85
I40
I109
I102
tp1
a(I15
I75
I39
I103
tp2
a(I85
I20
I109
I82
tp3
a(I15
I75
I143
I91
tp4
a(I15
I25
I143
I41
tp5
a(I40
I25
I64
I87
tp6
a(I20
I55
I44
I83
tp7
a(I120
I70
I144
I98
tp8
a(I35
I55
I59
I117
tp9
a.